; Function Attrs: mustprogress uwtable
define void @_ZNK8QuantLib21MultiProductComposite5cloneEv(ptr dead_on_unwind noalias nocapture writable writeonly sret(%"class.std::unique_ptr") align 8 %agg.result, ptr noundef nonnull align 8 dereferenceable(296) %this) unnamed_addr #0 align 2 personality ptr @__gxx_personality_v0 {
entry:
  %call = tail call noalias noundef nonnull dereferenceable(296) ptr @_Znwm(i64 noundef 296) #22
  invoke void @_ZN8QuantLib20MarketModelCompositeC2ERKS0_(ptr noundef nonnull align 8 dereferenceable(296) %call, ptr noundef nonnull align 8 dereferenceable(296) %this)
          to label %invoke.cont unwind label %lpad

invoke.cont:                                      ; preds = %entry
  store ptr getelementptr inbounds inrange(-16, 80) (i8, ptr @_ZTVN8QuantLib21MultiProductCompositeE, i64 16), ptr %call, align 8, !tbaa !7
  store ptr %call, ptr %agg.result, align 8, !tbaa !3
  ret void

lpad:                                             ; preds = %entry
  %0 = landingpad { ptr, i32 }
          cleanup
  tail call void @_ZdlPvm(ptr noundef nonnull %call, i64 noundef 296) #20
  resume { ptr, i32 } %0
}